target datalayout = "e-m:e-p270:32:32-p271:32:32-p272:64:64-i64:64-i128:128-f80:128-n8:16:32:64-S128"
target triple = "x86_64-pc-linux-gnu"

%class.G1PageBasedVirtualSpace = type <{ ptr, ptr, i64, i64, %class.CHeapBitMap, %class.CHeapBitMap, i8, [7 x i8] }>
%class.CHeapBitMap = type <{ %class.GrowableBitMap, i8, [7 x i8] }>
%class.GrowableBitMap = type { %class.BitMap }
%class.BitMap = type { ptr, i64 }

@.str.16 = private unnamed_addr constant [17 x i8] c"G1 virtual space\00", align 1

; Function Attrs: mustprogress nounwind uwtable
define hidden noundef ptr @_ZNK23G1PageBasedVirtualSpace10page_startEm(ptr noundef nonnull align 8 dereferenceable(81) %0, i64 noundef %1) #1 align 2 {
  %3 = alloca ptr, align 8
  %4 = alloca i64, align 8
  store ptr %0, ptr %3, align 8
  store i64 %1, ptr %4, align 8
  %5 = load ptr, ptr %3, align 8
  %6 = getelementptr inbounds %class.G1PageBasedVirtualSpace, ptr %5, i32 0, i32 0
  %7 = load ptr, ptr %6, align 8
  %8 = load i64, ptr %4, align 8
  %9 = getelementptr inbounds %class.G1PageBasedVirtualSpace, ptr %5, i32 0, i32 3
  %10 = load i64, ptr %9, align 8
  %11 = mul i64 %8, %10
  %12 = getelementptr inbounds i8, ptr %7, i64 %11
  ret ptr %12
}

; Function Attrs: mustprogress nounwind uwtable
define hidden void @_ZN23G1PageBasedVirtualSpace22commit_preferred_pagesEmm(ptr noundef nonnull align 8 dereferenceable(81) %0, i64 noundef %1, i64 noundef %2) #1 align 2 {
  %4 = alloca ptr, align 8
  %5 = alloca i64, align 8
  %6 = alloca i64, align 8
  %7 = alloca ptr, align 8
  %8 = alloca i64, align 8
  store ptr %0, ptr %4, align 8
  store i64 %1, ptr %5, align 8
  store i64 %2, ptr %6, align 8
  %9 = load ptr, ptr %4, align 8
  %10 = load i64, ptr %5, align 8
  %11 = call noundef ptr @_ZNK23G1PageBasedVirtualSpace10page_startEm(ptr noundef nonnull align 8 dereferenceable(81) %9, i64 noundef %10)
  store ptr %11, ptr %7, align 8
  %12 = load i64, ptr %6, align 8
  %13 = getelementptr inbounds %class.G1PageBasedVirtualSpace, ptr %9, i32 0, i32 3
  %14 = load i64, ptr %13, align 8
  %15 = mul i64 %12, %14
  store i64 %15, ptr %8, align 8
  %16 = load ptr, ptr %7, align 8
  %17 = load i64, ptr %8, align 8
  %18 = getelementptr inbounds %class.G1PageBasedVirtualSpace, ptr %9, i32 0, i32 3
  %19 = load i64, ptr %18, align 8
  call void @_ZN2os21commit_memory_or_exitEPcmmbPKc(ptr noundef %16, i64 noundef %17, i64 noundef %19, i1 noundef zeroext false, ptr noundef @.str.16)
  ret void
}