; Function Attrs: mustprogress nounwind uwtable
define hidden void @_ZN23G1PageBasedVirtualSpace22commit_preferred_pagesEmm(ptr nocapture noundef nonnull readonly align 8 dereferenceable(81) %0, i64 noundef %1, i64 noundef %2) local_unnamed_addr #0 align 2 {
  %4 = load ptr, ptr %0, align 8
  %5 = getelementptr inbounds i8, ptr %0, i64 24
  %6 = load i64, ptr %5, align 8
  %7 = mul i64 %6, %1
  %8 = getelementptr inbounds i8, ptr %4, i64 %7
  %9 = mul i64 %6, %2
  tail call void @_ZN2os21commit_memory_or_exitEPcmmbPKc(ptr noundef %8, i64 noundef %9, i64 noundef %6, i1 noundef zeroext false, ptr noundef nonnull @.str.16) #10
  ret void
}